; Function Attrs: mustprogress nofree norecurse nosync nounwind willreturn memory(read, inaccessiblemem: none) uwtable
define dso_local noundef ptr @_ZNK11btMultiBody19getJointVelMultiDofEi(ptr nocapture noundef nonnull readonly align 8 dereferenceable(640) %this, i32 noundef %i) local_unnamed_addr #6 align 2 {
entry:
  %m_data.i = getelementptr inbounds i8, ptr %this, i64 192
  %0 = load ptr, ptr %m_data.i, align 8
  %idxprom.i = sext i32 %i to i64
  %m_dofOffset = getelementptr inbounds %struct.btMultibodyLink, ptr %0, i64 %idxprom.i, i32 9
  %1 = load i32, ptr %m_dofOffset, align 8
  %m_data.i1 = getelementptr inbounds i8, ptr %this, i64 288
  %2 = load ptr, ptr %m_data.i1, align 8
  %3 = sext i32 %1 to i64
  %4 = getelementptr float, ptr %2, i64 %3
  %arrayidx.i3 = getelementptr i8, ptr %4, i64 24
  ret ptr %arrayidx.i3
}